target datalayout = "e-m:e-p270:32:32-p271:32:32-p272:64:64-i64:64-i128:128-f80:128-n8:16:32:64-S128"
target triple = "x86_64-pc-linux-gnu"

%struct.Type_ = type { i32, ptr, ptr, ptr, %union.anon, ptr, ptr, %union.anon.1 }
%union.anon = type { ptr }
%union.anon.1 = type { %struct.TypeFunction }
%struct.TypeFunction = type { ptr, ptr, ptr }
%union.SourceSpan = type { i64 }
%struct.Decl_ = type { ptr, ptr, %union.SourceSpan, i64, %union.anon.3, i32, %union.anon.4, i64, ptr, ptr, ptr, %union.anon.5 }
%union.anon.3 = type { ptr }
%union.anon.4 = type { i16 }
%union.anon.5 = type { %struct.FuncDecl }
%struct.FuncDecl = type { i32, [4 x i8], %struct.Signature_, i32, i32, %union.anon.12 }
%struct.Signature_ = type <{ %struct.CalleeAttributes, i16, i8, i32, i32, [4 x i8], ptr }>
%struct.CalleeAttributes = type { i8 }
%union.anon.12 = type { %struct.anon.13 }
%struct.anon.13 = type { i16, %union.anon.14 }
%union.anon.14 = type { ptr }
%struct.VHeader_ = type { i32, i32, [0 x i8] }
%struct.anon.6 = type { ptr, ptr, %union.anon.7 }
%union.anon.7 = type { %struct.BitStructDecl }
%struct.BitStructDecl = type { ptr, ptr, i8 }
%struct.StructDecl = type { i32, ptr, i32, i16 }

; Function Attrs: nounwind uwtable
define dso_local ptr @type_find_largest_union_element(ptr noundef %0) #0 {
  %2 = alloca i32, align 4
  %3 = alloca ptr, align 8
  %4 = alloca ptr, align 8
  %5 = alloca ptr, align 8
  %6 = alloca i64, align 8
  %7 = alloca ptr, align 8
  %8 = alloca ptr, align 8
  %9 = alloca i32, align 4
  %10 = alloca i32, align 4
  store ptr %0, ptr %5, align 8
  store i64 0, ptr %6, align 8
  store ptr null, ptr %7, align 8
  %11 = load ptr, ptr %5, align 8
  %12 = getelementptr inbounds %struct.Type_, ptr %11, i32 0, i32 7
  %13 = load ptr, ptr %12, align 8
  %14 = getelementptr inbounds %struct.Decl_, ptr %13, i32 0, i32 11
  %15 = getelementptr inbounds %struct.anon.6, ptr %14, i32 0, i32 2
  %16 = getelementptr inbounds %struct.StructDecl, ptr %15, i32 0, i32 1
  %17 = load ptr, ptr %16, align 8
  store ptr %17, ptr %8, align 8
  store i32 0, ptr %9, align 4
  %18 = load ptr, ptr %8, align 8
  store ptr %18, ptr %3, align 8
  %19 = load ptr, ptr %3, align 8
  %20 = icmp ne ptr %19, null
  br i1 %20, label %22, label %21

21:                                               ; preds = %1
  store i32 0, ptr %2, align 4
  br label %27

22:                                               ; preds = %1
  %23 = load ptr, ptr %3, align 8
  store ptr %23, ptr %4, align 8
  %24 = load ptr, ptr %4, align 8
  %25 = getelementptr inbounds %struct.VHeader_, ptr %24, i64 -1
  %26 = load i32, ptr %25, align 4
  store i32 %26, ptr %2, align 4
  br label %27

27:                                               ; preds = %22, %21
  %28 = load i32, ptr %2, align 4
  store i32 %28, ptr %10, align 4
  br label %29

29:                                               ; preds = %47, %27
  %30 = load i32, ptr %9, align 4
  %31 = load i32, ptr %10, align 4
  %32 = icmp ult i32 %30, %31
  br i1 %32, label %33, label %50

33:                                               ; preds = %29
  %34 = load ptr, ptr %5, align 8
  %35 = call i32 @type_size(ptr noundef %34)
  %36 = zext i32 %35 to i64
  %37 = load i64, ptr %6, align 8
  %38 = icmp ugt i64 %36, %37
  br i1 %38, label %39, label %46

39:                                               ; preds = %33
  %40 = load ptr, ptr %5, align 8
  %41 = call i32 @type_size(ptr noundef %40)
  %42 = zext i32 %41 to i64
  store i64 %42, ptr %6, align 8
  %43 = load ptr, ptr %5, align 8
  %44 = getelementptr inbounds %struct.Type_, ptr %43, i32 0, i32 1
  %45 = load ptr, ptr %44, align 8
  store ptr %45, ptr %7, align 8
  br label %46

46:                                               ; preds = %39, %33
  br label %47

47:                                               ; preds = %46
  %48 = load i32, ptr %9, align 4
  %49 = add i32 %48, 1
  store i32 %49, ptr %9, align 4
  br label %29, !llvm.loop !9

50:                                               ; preds = %29
  %51 = load ptr, ptr %7, align 8
  ret ptr %51
}