; Function Attrs: nounwind uwtable
define dso_local ptr @type_find_largest_union_element(ptr nocapture noundef readonly %0) local_unnamed_addr #0 {
  %2 = getelementptr inbounds i8, ptr %0, i64 56
  %3 = load ptr, ptr %2, align 8
  %4 = getelementptr inbounds i8, ptr %3, i64 104
  %5 = load ptr, ptr %4, align 8
  %.not = icmp eq ptr %5, null
  br i1 %.not, label %._crit_edge, label %6

6:                                                ; preds = %1
  %7 = getelementptr inbounds i8, ptr %5, i64 -8
  %8 = load i32, ptr %7, align 4
  %.not21 = icmp eq i32 %8, 0
  br i1 %.not21, label %._crit_edge, label %.lr.ph

.lr.ph:                                           ; preds = %6
  %9 = getelementptr inbounds i8, ptr %0, i64 8
  br label %10

10:                                               ; preds = %.lr.ph, %18
  %.01320 = phi i32 [ 0, %.lr.ph ], [ %19, %18 ]
  %.01419 = phi i64 [ 0, %.lr.ph ], [ %.1, %18 ]
  %.01518 = phi ptr [ null, %.lr.ph ], [ %.116, %18 ]
  %11 = tail call i32 @type_size(ptr noundef %0)
  %12 = zext i32 %11 to i64
  %13 = icmp ult i64 %.01419, %12
  br i1 %13, label %14, label %18

14:                                               ; preds = %10
  %15 = tail call i32 @type_size(ptr noundef %0)
  %16 = zext i32 %15 to i64
  %17 = load ptr, ptr %9, align 8
  br label %18

18:                                               ; preds = %10, %14
  %.116 = phi ptr [ %17, %14 ], [ %.01518, %10 ]
  %.1 = phi i64 [ %16, %14 ], [ %.01419, %10 ]
  %19 = add nuw i32 %.01320, 1
  %exitcond.not = icmp eq i32 %19, %8
  br i1 %exitcond.not, label %._crit_edge, label %10, !llvm.loop !10

._crit_edge:                                      ; preds = %18, %1, %6
  %.015.lcssa = phi ptr [ null, %6 ], [ null, %1 ], [ %.116, %18 ]
  ret ptr %.015.lcssa
}